; Function Attrs: mustprogress uwtable
define hidden void @_ZN8expr2var5resetEv(ptr nocapture noundef nonnull align 8 dereferenceable(41) %this) local_unnamed_addr #3 align 2 {
entry:
  %m_mapping = getelementptr inbounds i8, ptr %this, i64 16
  %0 = load ptr, ptr %m_mapping, align 8
  %cmp.i.i = icmp eq ptr %0, null
  br i1 %cmp.i.i, label %_ZN6vectorIN7obj_mapI4exprjE8key_dataELb0EjE5resetEv.exit, label %_ZN6vectorIN7obj_mapI4exprjE8key_dataELb0EjE3endEv.exit

_ZN6vectorIN7obj_mapI4exprjE8key_dataELb0EjE3endEv.exit: ; preds = %entry
  %arrayidx.i.i = getelementptr inbounds i8, ptr %0, i64 -4
  %1 = load i32, ptr %arrayidx.i.i, align 4
  %2 = zext i32 %1 to i64
  %add.ptr.i = getelementptr inbounds %"struct.obj_map<expr, unsigned int>::key_data", ptr %0, i64 %2
  %cmp.not16 = icmp eq i32 %1, 0
  br i1 %cmp.not16, label %if.then.i5, label %for.body

for.body:                                         ; preds = %_ZN6vectorIN7obj_mapI4exprjE8key_dataELb0EjE3endEv.exit, %_ZN11ast_manager7dec_refEP3ast.exit
  %__begin1.017 = phi ptr [ %incdec.ptr, %_ZN11ast_manager7dec_refEP3ast.exit ], [ %0, %_ZN6vectorIN7obj_mapI4exprjE8key_dataELb0EjE3endEv.exit ]
  %3 = load ptr, ptr %this, align 8
  %4 = load ptr, ptr %__begin1.017, align 8
  %tobool.not.i = icmp eq ptr %4, null
  br i1 %tobool.not.i, label %_ZN11ast_manager7dec_refEP3ast.exit, label %if.then.i

if.then.i:                                        ; preds = %for.body
  %m_ref_count.i.i = getelementptr inbounds i8, ptr %4, i64 8
  %5 = load i32, ptr %m_ref_count.i.i, align 4
  %dec.i.i = add i32 %5, -1
  store i32 %dec.i.i, ptr %m_ref_count.i.i, align 4
  %cmp.i = icmp eq i32 %dec.i.i, 0
  br i1 %cmp.i, label %if.then2.i, label %_ZN11ast_manager7dec_refEP3ast.exit

if.then2.i:                                       ; preds = %if.then.i
  tail call void @_ZN11ast_manager11delete_nodeEP3ast(ptr noundef nonnull align 8 dereferenceable(976) %3, ptr noundef nonnull %4)
  br label %_ZN11ast_manager7dec_refEP3ast.exit

_ZN11ast_manager7dec_refEP3ast.exit:              ; preds = %for.body, %if.then.i, %if.then2.i
  %incdec.ptr = getelementptr inbounds i8, ptr %__begin1.017, i64 16
  %cmp.not = icmp eq ptr %incdec.ptr, %add.ptr.i
  br i1 %cmp.not, label %for.end, label %for.body

for.end:                                          ; preds = %_ZN11ast_manager7dec_refEP3ast.exit
  %.pre = load ptr, ptr %m_mapping, align 8
  %tobool.not.i4 = icmp eq ptr %.pre, null
  br i1 %tobool.not.i4, label %_ZN6vectorIN7obj_mapI4exprjE8key_dataELb0EjE5resetEv.exit, label %if.then.i5

if.then.i5:                                       ; preds = %_ZN6vectorIN7obj_mapI4exprjE8key_dataELb0EjE3endEv.exit, %for.end
  %6 = phi ptr [ %.pre, %for.end ], [ %0, %_ZN6vectorIN7obj_mapI4exprjE8key_dataELb0EjE3endEv.exit ]
  %arrayidx.i = getelementptr inbounds i8, ptr %6, i64 -4
  store i32 0, ptr %arrayidx.i, align 4
  br label %_ZN6vectorIN7obj_mapI4exprjE8key_dataELb0EjE5resetEv.exit

_ZN6vectorIN7obj_mapI4exprjE8key_dataELb0EjE5resetEv.exit: ; preds = %entry, %for.end, %if.then.i5
  %m_id2map = getelementptr inbounds i8, ptr %this, i64 8
  %7 = load ptr, ptr %m_id2map, align 8
  %tobool.not.i6 = icmp eq ptr %7, null
  br i1 %tobool.not.i6, label %_ZN6vectorIjLb0EjE5resetEv.exit, label %if.then.i7

if.then.i7:                                       ; preds = %_ZN6vectorIN7obj_mapI4exprjE8key_dataELb0EjE5resetEv.exit
  %arrayidx.i8 = getelementptr inbounds i8, ptr %7, i64 -4
  store i32 0, ptr %arrayidx.i8, align 4
  br label %_ZN6vectorIjLb0EjE5resetEv.exit

_ZN6vectorIjLb0EjE5resetEv.exit:                  ; preds = %_ZN6vectorIN7obj_mapI4exprjE8key_dataELb0EjE5resetEv.exit, %if.then.i7
  %m_recent_exprs = getelementptr inbounds i8, ptr %this, i64 24
  %8 = load ptr, ptr %m_recent_exprs, align 8
  %tobool.not.i9 = icmp eq ptr %8, null
  br i1 %tobool.not.i9, label %_ZN6vectorIP4exprLb0EjE5resetEv.exit, label %if.then.i10

if.then.i10:                                      ; preds = %_ZN6vectorIjLb0EjE5resetEv.exit
  %arrayidx.i11 = getelementptr inbounds i8, ptr %8, i64 -4
  store i32 0, ptr %arrayidx.i11, align 4
  br label %_ZN6vectorIP4exprLb0EjE5resetEv.exit

_ZN6vectorIP4exprLb0EjE5resetEv.exit:             ; preds = %_ZN6vectorIjLb0EjE5resetEv.exit, %if.then.i10
  %m_recent_lim = getelementptr inbounds i8, ptr %this, i64 32
  %9 = load ptr, ptr %m_recent_lim, align 8
  %tobool.not.i12 = icmp eq ptr %9, null
  br i1 %tobool.not.i12, label %_ZN6vectorIjLb0EjE5resetEv.exit15, label %if.then.i13

if.then.i13:                                      ; preds = %_ZN6vectorIP4exprLb0EjE5resetEv.exit
  %arrayidx.i14 = getelementptr inbounds i8, ptr %9, i64 -4
  store i32 0, ptr %arrayidx.i14, align 4
  br label %_ZN6vectorIjLb0EjE5resetEv.exit15

_ZN6vectorIjLb0EjE5resetEv.exit15:                ; preds = %_ZN6vectorIP4exprLb0EjE5resetEv.exit, %if.then.i13
  %m_interpreted_vars = getelementptr inbounds i8, ptr %this, i64 40
  store i8 0, ptr %m_interpreted_vars, align 8
  ret void
}